# SymbolsHelper-Confirmed: 6.0.0 amd64
libKF6TextWidgets.so.6 libkf6textwidgets6 #MINVER#
* Build-Depends-Package: libkf6textwidgets-dev
 _ZN11KFindDialog10setOptionsEl@Base 6.0.0
 _ZN11KFindDialog10setPatternERK7QString@Base 6.0.0
 _ZN11KFindDialog11qt_metacallEN11QMetaObject4CallEiPPv@Base 6.0.0
 _ZN11KFindDialog11qt_metacastEPKc@Base 6.0.0
 _ZN11KFindDialog12setHasCursorEb@Base 6.0.0
 _ZN11KFindDialog13cancelClickedEv@Base 6.0.0
 _ZN11KFindDialog14optionsChangedEv@Base 6.0.0
 _ZN11KFindDialog14setFindHistoryERK5QListI7QStringE@Base 6.0.0
 _ZN11KFindDialog15setHasSelectionEb@Base 6.0.0
 _ZN11KFindDialog16staticMetaObjectE@Base 6.0.0
 _ZN11KFindDialog24setSupportsBackwardsFindEb@Base 6.0.0
 _ZN11KFindDialog25setSupportsWholeWordsFindEb@Base 6.0.0
 _ZN11KFindDialog28setSupportsCaseSensitiveFindEb@Base 6.0.0
 _ZN11KFindDialog32setSupportsRegularExpressionFindEb@Base 6.0.0
 _ZN11KFindDialog9okClickedEv@Base 6.0.0
 _ZN11KFindDialog9showEventEP10QShowEvent@Base 6.0.0
 _ZN11KFindDialogC1EP7QWidgetlRK5QListI7QStringEbb@Base 6.0.0
 _ZN11KFindDialogC2EP7QWidgetlRK5QListI7QStringEbb@Base 6.0.0
 _ZN11KFindDialogD0Ev@Base 6.0.0
 _ZN11KFindDialogD1Ev@Base 6.0.0
 _ZN11KFindDialogD2Ev@Base 6.0.0
 _ZN13KRichTextEdit10alignRightEv@Base 6.0.0
 _ZN13KRichTextEdit10updateLinkERK7QStringS2_@Base 6.0.0
 _ZN13KRichTextEdit11alignCenterEv@Base 6.0.0
 _ZN13KRichTextEdit11qt_metacallEN11QMetaObject4CallEiPPv@Base 6.0.0
 _ZN13KRichTextEdit11qt_metacastEPKc@Base 6.0.0
 _ZN13KRichTextEdit11setFontSizeEi@Base 6.0.0
 _ZN13KRichTextEdit11setTextBoldEb@Base 6.0.0
 _ZN13KRichTextEdit12alignJustifyEv@Base 6.0.0
 _ZN13KRichTextEdit12setListStyleEi@Base 6.0.0
 _ZN13KRichTextEdit13keyPressEventEP9QKeyEvent@Base 6.0.0
 _ZN13KRichTextEdit13setFontFamilyERK7QString@Base 6.0.0
 _ZN13KRichTextEdit13setTextItalicEb@Base 6.0.0
 _ZN13KRichTextEdit13setTextOrHtmlERK7QString@Base 6.0.0
 _ZN13KRichTextEdit14indentListLessEv@Base 6.0.0
 _ZN13KRichTextEdit14indentListMoreEv@Base 6.0.0
 _ZN13KRichTextEdit15makeLeftToRightEv@Base 6.0.0
 _ZN13KRichTextEdit15makeRightToLeftEv@Base 6.0.0
 _ZN13KRichTextEdit15setHeadingLevelEi@Base 6.0.0
 _ZN13KRichTextEdit15textModeChangedENS_4ModeE@Base 6.0.0
 _ZN13KRichTextEdit16setTextStrikeOutEb@Base 6.0.0
 _ZN13KRichTextEdit16setTextSubScriptEb@Base 6.0.0
 _ZN13KRichTextEdit16setTextUnderlineEb@Base 6.0.0
 _ZN13KRichTextEdit16staticMetaObjectE@Base 6.0.0
 _ZN13KRichTextEdit17switchToPlainTextEv@Base 6.0.0
 _ZN13KRichTextEdit18enableRichTextModeEv@Base 6.0.0
 _ZN13KRichTextEdit18setTextSuperScriptEb@Base 6.0.0
 _ZN13KRichTextEdit20insertHorizontalRuleEv@Base 6.0.0
 _ZN13KRichTextEdit22setTextBackgroundColorERK6QColor@Base 6.0.0
 _ZN13KRichTextEdit22setTextForegroundColorERK6QColor@Base 6.0.0
 _ZN13KRichTextEdit29insertPlainTextImplementationEv@Base 6.0.0
 _ZN13KRichTextEdit7setFontERK5QFont@Base 6.0.0
 _ZN13KRichTextEdit9alignLeftEv@Base 6.0.0
 _ZN13KRichTextEditC1EP7QWidget@Base 6.0.0
 _ZN13KRichTextEditC1ERK7QStringP7QWidget@Base 6.0.0
 _ZN13KRichTextEditC2EP7QWidget@Base 6.0.0
 _ZN13KRichTextEditC2ERK7QStringP7QWidget@Base 6.0.0
 _ZN13KRichTextEditD0Ev@Base 6.0.0
 _ZN13KRichTextEditD1Ev@Base 6.0.0
 _ZN13KRichTextEditD2Ev@Base 6.0.0
 _ZN14KReplaceDialog10setOptionsEl@Base 6.0.0
 _ZN14KReplaceDialog11qt_metacallEN11QMetaObject4CallEiPPv@Base 6.0.0
 _ZN14KReplaceDialog11qt_metacastEPKc@Base 6.0.0
 _ZN14KReplaceDialog16staticMetaObjectE@Base 6.0.0
 _ZN14KReplaceDialog21setReplacementHistoryERK5QListI7QStringE@Base 6.0.0
 _ZN14KReplaceDialog9showEventEP10QShowEvent@Base 6.0.0
 _ZN14KReplaceDialogC1EP7QWidgetlRK5QListI7QStringES6_b@Base 6.0.0
 _ZN14KReplaceDialogC2EP7QWidgetlRK5QListI7QStringES6_b@Base 6.0.0
 _ZN14KReplaceDialogD0Ev@Base 6.0.0
 _ZN14KReplaceDialogD1Ev@Base 6.0.0
 _ZN14KReplaceDialogD2Ev@Base 6.0.0
 _ZN15KRichTextWidget11qt_metacallEN11QMetaObject4CallEiPPv@Base 6.0.0
 _ZN15KRichTextWidget11qt_metacastEPKc@Base 6.0.0
 _ZN15KRichTextWidget13createActionsEv@Base 6.0.0
 _ZN15KRichTextWidget16staticMetaObjectE@Base 6.0.0
 _ZN15KRichTextWidget17mouseReleaseEventEP11QMouseEvent@Base 6.0.0
 _ZN15KRichTextWidget17setActionsEnabledEb@Base 6.0.0
 _ZN15KRichTextWidget18setRichTextSupportERK6QFlagsINS_21RichTextSupportValuesEE@Base 6.0.0
 _ZN15KRichTextWidget18updateActionStatesEv@Base 6.0.0
 _ZN15KRichTextWidgetC1EP7QWidget@Base 6.0.0
 _ZN15KRichTextWidgetC1ERK7QStringP7QWidget@Base 6.0.0
 _ZN15KRichTextWidgetC2EP7QWidget@Base 6.0.0
 _ZN15KRichTextWidgetC2ERK7QStringP7QWidget@Base 6.0.0
 _ZN15KRichTextWidgetD0Ev@Base 6.0.0
 _ZN15KRichTextWidgetD1Ev@Base 6.0.0
 _ZN15KRichTextWidgetD2Ev@Base 6.0.0
 _ZN22KPluralHandlingSpinBox11qt_metacallEN11QMetaObject4CallEiPPv@Base 6.0.0
 _ZN22KPluralHandlingSpinBox11qt_metacastEPKc@Base 6.0.0
 _ZN22KPluralHandlingSpinBox16staticMetaObjectE@Base 6.0.0
 _ZN22KPluralHandlingSpinBox9setSuffixERK16KLocalizedString@Base 6.0.0
 _ZN22KPluralHandlingSpinBoxC1EP7QWidget@Base 6.0.0
 _ZN22KPluralHandlingSpinBoxC2EP7QWidget@Base 6.0.0
 _ZN22KPluralHandlingSpinBoxD0Ev@Base 6.0.0
 _ZN22KPluralHandlingSpinBoxD1Ev@Base 6.0.0
 _ZN22KPluralHandlingSpinBoxD2Ev@Base 6.0.0
 _ZN5KFind10setOptionsEl@Base 6.0.0
 _ZN5KFind10setPatternERK7QString@Base 6.0.0
 _ZN5KFind11qt_metacallEN11QMetaObject4CallEiPPv@Base 6.0.0
 _ZN5KFind11qt_metacastEPKc@Base 6.0.0
 _ZN5KFind11resetCountsEv@Base 6.0.0
 _ZN5KFind12dialogClosedEv@Base 6.0.0
 _ZN5KFind13textFoundAtIdEiii@Base 6.0.0
 _ZN5KFind13validateMatchERK7QStringii@Base 6.0.0
 _ZN5KFind14findNextDialogEb@Base 6.0.0
 _ZN5KFind14optionsChangedEv@Base 6.0.0
 _ZN5KFind16staticMetaObjectE@Base 6.0.0
 _ZN5KFind19closeFindNextDialogEv@Base 6.0.0
 _ZN5KFind4findERK7QStringS2_ilPiP23QRegularExpressionMatch@Base 6.0.0
 _ZN5KFind4findEv@Base 6.0.0
 _ZN5KFind7setDataERK7QStringi@Base 6.0.0
 _ZN5KFind7setDataEiRK7QStringi@Base 6.0.0
 _ZN5KFind8findNextEv@Base 6.0.0
 _ZN5KFind9textFoundERK7QStringii@Base 6.0.0
 _ZN5KFindC1ERK7QStringlP7QWidget@Base 6.0.0
 _ZN5KFindC1ERK7QStringlP7QWidgetS4_@Base 6.0.0
 _ZN5KFindC2ERK7QStringlP7QWidget@Base 6.0.0
 _ZN5KFindC2ERK7QStringlP7QWidgetS4_@Base 6.0.0
 _ZN5KFindD0Ev@Base 6.0.0
 _ZN5KFindD1Ev@Base 6.0.0
 _ZN5KFindD2Ev@Base 6.0.0
 _ZN8KReplace11qt_metacallEN11QMetaObject4CallEiPPv@Base 6.0.0
 _ZN8KReplace11qt_metacastEPKc@Base 6.0.0
 _ZN8KReplace11resetCountsEv@Base 6.0.0
 _ZN8KReplace12textReplacedERK7QStringiii@Base 6.0.0
 _ZN8KReplace16staticMetaObjectE@Base 6.0.0
 _ZN8KReplace17replaceNextDialogEb@Base 6.0.0
 _ZN8KReplace22closeReplaceNextDialogEv@Base 6.0.0
 _ZN8KReplace7replaceER7QStringRKS0_S3_ilPi@Base 6.0.0
 _ZN8KReplace7replaceEv@Base 6.0.0
 _ZN8KReplaceC1ERK7QStringS2_lP7QWidget@Base 6.0.0
 _ZN8KReplaceC1ERK7QStringS2_lP7QWidgetS4_@Base 6.0.0
 _ZN8KReplaceC2ERK7QStringS2_lP7QWidget@Base 6.0.0
 _ZN8KReplaceC2ERK7QStringS2_lP7QWidgetS4_@Base 6.0.0
 _ZN8KReplaceD0Ev@Base 6.0.0
 _ZN8KReplaceD1Ev@Base 6.0.0
 _ZN8KReplaceD2Ev@Base 6.0.0
 _ZN9KTextEdit10slotDoFindEv@Base 6.0.0
 _ZN9KTextEdit11qt_metacallEN11QMetaObject4CallEiPPv@Base 6.0.0
 _ZN9KTextEdit11qt_metacastEPKc@Base 6.0.0
 _ZN9KTextEdit11setReadOnlyEb@Base 6.0.0
 _ZN9KTextEdit11slotReplaceEv@Base 6.0.0
 _ZN9KTextEdit12focusInEventEP11QFocusEvent@Base 6.0.0
 _ZN9KTextEdit12slotFindNextEv@Base 6.0.0
 _ZN9KTextEdit13checkSpellingEv@Base 6.0.0
 _ZN9KTextEdit13highlightWordEii@Base 6.0.0
 _ZN9KTextEdit13keyPressEventEP9QKeyEvent@Base 6.0.0
 _ZN9KTextEdit13showTabActionEb@Base 6.0.0
 _ZN9KTextEdit13slotDoReplaceEv@Base 6.0.0
 _ZN9KTextEdit13slotSpeakTextEv@Base 6.0.0
 _ZN9KTextEdit14clearDecoratorEv@Base 6.0.0
 _ZN9KTextEdit14deleteWordBackEv@Base 6.0.0
 _ZN9KTextEdit14mousePopupMenuEv@Base 6.0.0
 _ZN9KTextEdit14setHighlighterEPN6Sonnet11HighlighterE@Base 6.0.0
 _ZN9KTextEdit15languageChangedERK7QString@Base 6.0.0
 _ZN9KTextEdit15slotReplaceNextEv@Base 6.0.0
 _ZN9KTextEdit16addTextDecoratorEPN6Sonnet19SpellCheckDecoratorE@Base 6.0.0
 _ZN9KTextEdit16contextMenuEventEP17QContextMenuEvent@Base 6.0.0
 _ZN9KTextEdit16slotFindPreviousEv@Base 6.0.0
 _ZN9KTextEdit16spellCheckStatusERK7QString@Base 6.0.0
 _ZN9KTextEdit16staticMetaObjectE@Base 6.0.0
 _ZN9KTextEdit17createHighlighterEv@Base 6.0.0
 _ZN9KTextEdit17deleteWordForwardEv@Base 6.0.0
 _ZN9KTextEdit17enableFindReplaceEb@Base 6.0.0
 _ZN9KTextEdit18forceSpellCheckingEv@Base 6.0.0
 _ZN9KTextEdit20checkSpellingChangedEb@Base 6.0.0
 _ZN9KTextEdit21showAutoCorrectButtonEb@Base 6.0.0
 _ZN9KTextEdit21showSpellConfigDialogERK7QString@Base 6.0.0
 _ZN9KTextEdit21spellCheckingCanceledEv@Base 6.0.0
 _ZN9KTextEdit21spellCheckingFinishedEv@Base 6.0.0
 _ZN9KTextEdit22aboutToShowContextMenuEP5QMenu@Base 6.0.0
 _ZN9KTextEdit23setCheckSpellingEnabledEb@Base 6.0.0
 _ZN9KTextEdit23spellCheckerAutoCorrectERK7QStringS2_@Base 6.0.0
 _ZN9KTextEdit24setSpellCheckingLanguageERK7QString@Base 6.0.0
 _ZN9KTextEdit5eventEP6QEvent@Base 6.0.0
 _ZN9KTextEdit7replaceEv@Base 6.0.0
 _ZN9KTextEdit8slotFindEv@Base 6.0.0
 _ZN9KTextEditC1EP7QWidget@Base 6.0.0
 _ZN9KTextEditC1ERK7QStringP7QWidget@Base 6.0.0
 _ZN9KTextEditC2EP7QWidget@Base 6.0.0
 _ZN9KTextEditC2ERK7QStringP7QWidget@Base 6.0.0
 _ZN9KTextEditD0Ev@Base 6.0.0
 _ZN9KTextEditD1Ev@Base 6.0.0
 _ZN9KTextEditD2Ev@Base 6.0.0
 _ZNK11KFindDialog10metaObjectEv@Base 6.0.0
 _ZNK11KFindDialog11findHistoryEv@Base 6.0.0
 _ZNK11KFindDialog13findExtensionEv@Base 6.0.0
 _ZNK11KFindDialog7optionsEv@Base 6.0.0
 _ZNK11KFindDialog7patternEv@Base 6.0.0
 _ZNK13KRichTextEdit10metaObjectEv@Base 6.0.0
 _ZNK13KRichTextEdit10textOrHtmlEv@Base 6.0.0
 _ZNK13KRichTextEdit11toCleanHtmlEv@Base 6.0.0
 _ZNK13KRichTextEdit13canDedentListEv@Base 6.0.0
 _ZNK13KRichTextEdit13canIndentListEv@Base 6.0.0
 _ZNK13KRichTextEdit14currentLinkUrlEv@Base 6.0.0
 _ZNK13KRichTextEdit14selectLinkTextEP11QTextCursor@Base 6.0.0
 _ZNK13KRichTextEdit14selectLinkTextEv@Base 6.0.0
 _ZNK13KRichTextEdit15currentLinkTextEv@Base 6.0.0
 _ZNK13KRichTextEdit8textModeEv@Base 6.0.0
 _ZNK14KReplaceDialog10metaObjectEv@Base 6.0.0
 _ZNK14KReplaceDialog11replacementEv@Base 6.0.0
 _ZNK14KReplaceDialog16replaceExtensionEv@Base 6.0.0
 _ZNK14KReplaceDialog18replacementHistoryEv@Base 6.0.0
 _ZNK14KReplaceDialog7optionsEv@Base 6.0.0
 _ZNK15KRichTextWidget10metaObjectEv@Base 6.0.0
 _ZNK15KRichTextWidget15richTextSupportEv@Base 6.0.0
 _ZNK22KPluralHandlingSpinBox10metaObjectEv@Base 6.0.0
 _ZNK5KFind10metaObjectEv@Base 6.0.0
 _ZNK5KFind10numMatchesEv@Base 6.0.0
 _ZNK5KFind12parentWidgetEv@Base 6.0.0
 _ZNK5KFind13dialogsParentEv@Base 6.0.0
 _ZNK5KFind13shouldRestartEbb@Base 6.0.0
 _ZNK5KFind18displayFinalDialogEv@Base 6.0.0
 _ZNK5KFind5indexEv@Base 6.0.0
 _ZNK5KFind7optionsEv@Base 6.0.0
 _ZNK5KFind7patternEv@Base 6.0.0
 _ZNK5KFind8needDataEv@Base 6.0.0
 _ZNK8KReplace10metaObjectEv@Base 6.0.0
 _ZNK8KReplace13shouldRestartEbb@Base 6.0.0
 _ZNK8KReplace15numReplacementsEv@Base 6.0.0
 _ZNK8KReplace18displayFinalDialogEv@Base 6.0.0
 _ZNK9KTextEdit10metaObjectEv@Base 6.0.0
 _ZNK9KTextEdit11highlighterEv@Base 6.0.0
 _ZNK9KTextEdit20checkSpellingEnabledEv@Base 6.0.0
 _ZNK9KTextEdit21spellCheckingLanguageEv@Base 6.0.0
 _ZNK9KTextEdit25shouldBlockBeSpellCheckedERK7QString@Base 6.0.0
 _ZTI11KFindDialog@Base 6.0.0
 _ZTI13KRichTextEdit@Base 6.0.0
 _ZTI14KReplaceDialog@Base 6.0.0
 _ZTI15KRichTextWidget@Base 6.0.0
 _ZTI22KPluralHandlingSpinBox@Base 6.0.0
 _ZTI5KFind@Base 6.0.0
 _ZTI8KReplace@Base 6.0.0
 _ZTI9KTextEdit@Base 6.0.0
 _ZTS11KFindDialog@Base 6.0.0
 _ZTS13KRichTextEdit@Base 6.0.0
 _ZTS14KReplaceDialog@Base 6.0.0
 _ZTS15KRichTextWidget@Base 6.0.0
 _ZTS22KPluralHandlingSpinBox@Base 6.0.0
 _ZTS5KFind@Base 6.0.0
 _ZTS8KReplace@Base 6.0.0
 _ZTS9KTextEdit@Base 6.0.0
 _ZTV11KFindDialog@Base 6.0.0
 _ZTV13KRichTextEdit@Base 6.0.0
 _ZTV14KReplaceDialog@Base 6.0.0
 _ZTV15KRichTextWidget@Base 6.0.0
 _ZTV22KPluralHandlingSpinBox@Base 6.0.0
 _ZTV5KFind@Base 6.0.0
 _ZTV8KReplace@Base 6.0.0
 _ZTV9KTextEdit@Base 6.0.0
 (c++)"non-virtual thunk to KFindDialog::~KFindDialog()@Base" 6.0.0
 (c++)"non-virtual thunk to KPluralHandlingSpinBox::~KPluralHandlingSpinBox()@Base" 6.0.0
 (c++)"non-virtual thunk to KReplaceDialog::~KReplaceDialog()@Base" 6.0.0
 (c++)"non-virtual thunk to KRichTextEdit::~KRichTextEdit()@Base" 6.0.0
 (c++)"non-virtual thunk to KRichTextWidget::~KRichTextWidget()@Base" 6.0.0
 (c++)"non-virtual thunk to KTextEdit::~KTextEdit()@Base" 6.0.0
